; Function Attrs: mustprogress nofree norecurse nosync nounwind willreturn memory(argmem: read) uwtable
define i64 @lv_point_from_precise(ptr noundef readonly captures(none) %0) local_unnamed_addr #3 {
  %2 = load float, ptr %0, align 4, !tbaa !19
  %3 = fptosi float %2 to i32
  %4 = getelementptr inbounds nuw i8, ptr %0, i64 4
  %5 = load float, ptr %4, align 4, !tbaa !22
  %6 = fptosi float %5 to i32
  %.sroa.2.0.insert.ext = zext i32 %6 to i64
  %.sroa.2.0.insert.shift = shl nuw i64 %.sroa.2.0.insert.ext, 32
  %.sroa.0.0.insert.ext = zext i32 %3 to i64
  %.sroa.0.0.insert.insert = or disjoint i64 %.sroa.2.0.insert.shift, %.sroa.0.0.insert.ext
  ret i64 %.sroa.0.0.insert.insert
}